target datalayout = "e-m:e-p270:32:32-p271:32:32-p272:64:64-i64:64-i128:128-f80:128-n8:16:32:64-S128"
target triple = "x86_64-pc-linux-gnu"

@proto_register_dlt.ett = internal global [8 x ptr] [ptr @ett_dlt, ptr @ett_dlt_hdr_type, ptr @ett_dlt_ext_hdr, ptr @ett_dlt_msg_info, ptr @ett_dlt_payload, ptr @ett_dlt_service_app_ids, ptr @ett_dlt_service_app_id, ptr @ett_dlt_service_ctx_id], align 16
@.str.112 = private unnamed_addr constant [31 x i8] c"Diagnostic Log and Trace (DLT)\00", align 1
@.str.113 = private unnamed_addr constant [4 x i8] c"DLT\00", align 1
@.str.114 = private unnamed_addr constant [4 x i8] c"dlt\00", align 1
@proto_dlt = internal global i32 0, align 4
@.str.115 = private unnamed_addr constant [8 x i8] c"dlt_tcp\00", align 1
@dlt_handle_tcp = internal global ptr null, align 8
@.str.116 = private unnamed_addr constant [8 x i8] c"dlt_udp\00", align 1
@dlt_handle_udp = internal global ptr null, align 8
@.str.117 = private unnamed_addr constant [12 x i8] c"dlt_storage\00", align 1
@proto_dlt_storage_header = internal global i32 0, align 4
@dlt_handle_storage = internal global ptr null, align 8
@.str.118 = private unnamed_addr constant [24 x i8] c"DLT Log Message payload\00", align 1
@heur_subdissector_list = internal global ptr null, align 8

; Function Attrs: nounwind uwtable
define hidden void @proto_register_dlt() #0 {
  %1 = alloca ptr, align 8
  %2 = call i32 @proto_register_protocol(ptr noundef @.str.112, ptr noundef @.str.113, ptr noundef @.str.114)
  store i32 %2, ptr @proto_dlt, align 4
  %3 = load i32, ptr @proto_dlt, align 4
  %4 = call ptr @register_dissector(ptr noundef @.str.115, ptr noundef @dissect_dlt_tcp, i32 noundef %3)
  store ptr %4, ptr @dlt_handle_tcp, align 8
  %5 = load i32, ptr @proto_dlt, align 4
  %6 = call ptr @register_dissector(ptr noundef @.str.116, ptr noundef @dissect_dlt_udp, i32 noundef %5)
  store ptr %6, ptr @dlt_handle_udp, align 8
  %7 = load i32, ptr @proto_dlt_storage_header, align 4
  %8 = call ptr @register_dissector(ptr noundef @.str.117, ptr noundef @dissect_dlt_storage_header, i32 noundef %7)
  store ptr %8, ptr @dlt_handle_storage, align 8
  call void @proto_register_subtree_array(ptr noundef @proto_register_dlt.ett, i32 noundef 8)
  %9 = load i32, ptr @proto_dlt, align 4
  call void @proto_register_field_array(i32 noundef %9, ptr noundef @proto_register_dlt.hf_dlt, i32 noundef 53)
  %10 = load i32, ptr @proto_dlt, align 4
  %11 = call ptr @expert_register_protocol(i32 noundef %10)
  store ptr %11, ptr %1, align 8
  %12 = load ptr, ptr %1, align 8
  call void @expert_register_field_array(ptr noundef %12, ptr noundef @proto_register_dlt.ei, i32 noundef 6)
  %13 = load i32, ptr @proto_dlt, align 4
  %14 = call ptr @register_heur_dissector_list_with_description(ptr noundef @.str.114, ptr noundef @.str.118, i32 noundef %13)
  store ptr %14, ptr @heur_subdissector_list, align 8
  ret void
}