; Function Attrs: nounwind uwtable
define hidden void @proto_register_dlt() local_unnamed_addr #2 {
  %1 = tail call i32 @proto_register_protocol(ptr noundef nonnull @.str.112, ptr noundef nonnull @.str.113, ptr noundef nonnull @.str.114) #7
  store i32 %1, ptr @proto_dlt, align 4
  %2 = tail call ptr @register_dissector(ptr noundef nonnull @.str.115, ptr noundef nonnull @dissect_dlt_tcp, i32 noundef %1) #7
  store ptr %2, ptr @dlt_handle_tcp, align 8
  %3 = load i32, ptr @proto_dlt, align 4
  %4 = tail call ptr @register_dissector(ptr noundef nonnull @.str.116, ptr noundef nonnull @dissect_dlt_udp, i32 noundef %3) #7
  store ptr %4, ptr @dlt_handle_udp, align 8
  %5 = load i32, ptr @proto_dlt_storage_header, align 4
  %6 = tail call ptr @register_dissector(ptr noundef nonnull @.str.117, ptr noundef nonnull @dissect_dlt_storage_header, i32 noundef %5) #7
  store ptr %6, ptr @dlt_handle_storage, align 8
  tail call void @proto_register_subtree_array(ptr noundef nonnull @proto_register_dlt.ett, i32 noundef 8) #7
  %7 = load i32, ptr @proto_dlt, align 4
  tail call void @proto_register_field_array(i32 noundef %7, ptr noundef nonnull @proto_register_dlt.hf_dlt, i32 noundef 53) #7
  %8 = load i32, ptr @proto_dlt, align 4
  %9 = tail call ptr @expert_register_protocol(i32 noundef %8) #7
  tail call void @expert_register_field_array(ptr noundef %9, ptr noundef nonnull @proto_register_dlt.ei, i32 noundef 6) #7
  %10 = load i32, ptr @proto_dlt, align 4
  %11 = tail call ptr @register_heur_dissector_list_with_description(ptr noundef nonnull @.str.114, ptr noundef nonnull @.str.118, i32 noundef %10) #7
  store ptr %11, ptr @heur_subdissector_list, align 8
  ret void
}